target datalayout = "e-m:e-p270:32:32-p271:32:32-p272:64:64-i64:64-i128:128-f80:128-n8:16:32:64-S128"
target triple = "x86_64-pc-linux-gnu"

%struct.ExpireMeta = type { i32, i16, i16, ptr }
%struct.redisObject = type { i32, i32, ptr }
%struct.listpackEx = type { %struct.ExpireMeta, ptr, ptr }
%struct.listpackEntry = type { ptr, i32, i64 }
%struct.lpFingArgs = type { i64, i64, ptr, i32, i32, ptr }
%struct.sdshdr8 = type { i8, i8, i8, [0 x i8] }
%struct.sdshdr16 = type <{ i16, i16, i8, [0 x i8] }>
%struct.sdshdr32 = type <{ i32, i32, i8, [0 x i8] }>
%struct.sdshdr64 = type <{ i64, i64, i8, [0 x i8] }>

; Function Attrs: nounwind uwtable
define internal void @listpackExAddInternal(ptr noundef %0, ptr noundef %1) #1 {
  %3 = alloca ptr, align 8
  %4 = alloca ptr, align 8
  %5 = alloca ptr, align 8
  %6 = alloca i32, align 4
  %7 = alloca %struct.lpFingArgs, align 8
  store ptr %0, ptr %3, align 8, !tbaa !15
  store ptr %1, ptr %4, align 8, !tbaa !10
  call void @llvm.lifetime.start.p0(i64 8, ptr %5) #12
  %8 = load ptr, ptr %3, align 8, !tbaa !15
  %9 = getelementptr inbounds nuw %struct.redisObject, ptr %8, i32 0, i32 2
  %10 = load ptr, ptr %9, align 8, !tbaa !17
  store ptr %10, ptr %5, align 8, !tbaa !19
  %11 = load ptr, ptr %4, align 8, !tbaa !10
  %12 = getelementptr inbounds %struct.listpackEntry, ptr %11, i64 2
  %13 = getelementptr inbounds nuw %struct.listpackEntry, ptr %12, i32 0, i32 2
  %14 = load i64, ptr %13, align 8, !tbaa !79
  %15 = icmp eq i64 %14, 0
  br i1 %15, label %16, label %24

16:                                               ; preds = %2
  %17 = load ptr, ptr %5, align 8, !tbaa !19
  %18 = getelementptr inbounds nuw %struct.listpackEx, ptr %17, i32 0, i32 2
  %19 = load ptr, ptr %18, align 8, !tbaa !21
  %20 = load ptr, ptr %4, align 8, !tbaa !10
  %21 = call ptr @lpBatchAppend(ptr noundef %19, ptr noundef %20, i64 noundef 3)
  %22 = load ptr, ptr %5, align 8, !tbaa !19
  %23 = getelementptr inbounds nuw %struct.listpackEx, ptr %22, i32 0, i32 2
  store ptr %21, ptr %23, align 8, !tbaa !21
  store i32 1, ptr %6, align 4
  br label %61

24:                                               ; preds = %2
  call void @llvm.lifetime.start.p0(i64 40, ptr %7) #12
  %25 = getelementptr inbounds nuw %struct.lpFingArgs, ptr %7, i32 0, i32 0
  store i64 -1, ptr %25, align 8, !tbaa !80
  %26 = getelementptr inbounds nuw %struct.lpFingArgs, ptr %7, i32 0, i32 1
  %27 = load ptr, ptr %4, align 8, !tbaa !10
  %28 = getelementptr inbounds %struct.listpackEntry, ptr %27, i64 2
  %29 = getelementptr inbounds nuw %struct.listpackEntry, ptr %28, i32 0, i32 2
  %30 = load i64, ptr %29, align 8, !tbaa !79
  store i64 %30, ptr %26, align 8, !tbaa !82
  %31 = getelementptr inbounds nuw %struct.lpFingArgs, ptr %7, i32 0, i32 2
  store ptr null, ptr %31, align 8, !tbaa !83
  %32 = getelementptr inbounds nuw %struct.lpFingArgs, ptr %7, i32 0, i32 3
  store i32 0, ptr %32, align 8, !tbaa !84
  %33 = getelementptr inbounds nuw %struct.lpFingArgs, ptr %7, i32 0, i32 4
  store i32 0, ptr %33, align 4, !tbaa !85
  %34 = getelementptr inbounds nuw %struct.lpFingArgs, ptr %7, i32 0, i32 5
  store ptr null, ptr %34, align 8, !tbaa !86
  %35 = load ptr, ptr %5, align 8, !tbaa !19
  %36 = getelementptr inbounds nuw %struct.listpackEx, ptr %35, i32 0, i32 2
  %37 = load ptr, ptr %36, align 8, !tbaa !21
  %38 = call ptr @lpFindCb(ptr noundef %37, ptr noundef null, ptr noundef %7, ptr noundef @cbFindInListpack, i32 noundef 0)
  %39 = getelementptr inbounds nuw %struct.lpFingArgs, ptr %7, i32 0, i32 2
  %40 = load ptr, ptr %39, align 8, !tbaa !83
  %41 = icmp ne ptr %40, null
  br i1 %41, label %42, label %52

42:                                               ; preds = %24
  %43 = load ptr, ptr %5, align 8, !tbaa !19
  %44 = getelementptr inbounds nuw %struct.listpackEx, ptr %43, i32 0, i32 2
  %45 = load ptr, ptr %44, align 8, !tbaa !21
  %46 = getelementptr inbounds nuw %struct.lpFingArgs, ptr %7, i32 0, i32 2
  %47 = load ptr, ptr %46, align 8, !tbaa !83
  %48 = load ptr, ptr %4, align 8, !tbaa !10
  %49 = call ptr @lpBatchInsert(ptr noundef %45, ptr noundef %47, i32 noundef 0, ptr noundef %48, i32 noundef 3, ptr noundef null)
  %50 = load ptr, ptr %5, align 8, !tbaa !19
  %51 = getelementptr inbounds nuw %struct.listpackEx, ptr %50, i32 0, i32 2
  store ptr %49, ptr %51, align 8, !tbaa !21
  br label %60

52:                                               ; preds = %24
  %53 = load ptr, ptr %5, align 8, !tbaa !19
  %54 = getelementptr inbounds nuw %struct.listpackEx, ptr %53, i32 0, i32 2
  %55 = load ptr, ptr %54, align 8, !tbaa !21
  %56 = load ptr, ptr %4, align 8, !tbaa !10
  %57 = call ptr @lpBatchAppend(ptr noundef %55, ptr noundef %56, i64 noundef 3)
  %58 = load ptr, ptr %5, align 8, !tbaa !19
  %59 = getelementptr inbounds nuw %struct.listpackEx, ptr %58, i32 0, i32 2
  store ptr %57, ptr %59, align 8, !tbaa !21
  br label %60

60:                                               ; preds = %52, %42
  call void @llvm.lifetime.end.p0(i64 40, ptr %7) #12
  store i32 0, ptr %6, align 4
  br label %61

61:                                               ; preds = %60, %16
  call void @llvm.lifetime.end.p0(i64 8, ptr %5) #12
  %62 = load i32, ptr %6, align 4
  switch i32 %62, label %64 [
    i32 0, label %63
    i32 1, label %63
  ]

63:                                               ; preds = %61, %61
  ret void

64:                                               ; preds = %61
  unreachable
}

; Function Attrs: inlinehint nounwind uwtable
define internal i64 @sdslen(ptr noundef %0) #7 {
  %2 = alloca i64, align 8
  %3 = alloca ptr, align 8
  %4 = alloca i8, align 1
  %5 = alloca i32, align 4
  store ptr %0, ptr %3, align 8, !tbaa !33
  call void @llvm.lifetime.start.p0(i64 1, ptr %4) #12
  %6 = load ptr, ptr %3, align 8, !tbaa !33
  %7 = getelementptr inbounds i8, ptr %6, i64 -1
  %8 = load i8, ptr %7, align 1, !tbaa !95
  store i8 %8, ptr %4, align 1, !tbaa !95
  %9 = load i8, ptr %4, align 1, !tbaa !95
  %10 = zext i8 %9 to i32
  %11 = and i32 %10, 7
  switch i32 %11, label %40 [
    i32 0, label %12
    i32 1, label %17
    i32 2, label %23
    i32 3, label %29
    i32 4, label %35
  ]

12:                                               ; preds = %1
  %13 = load i8, ptr %4, align 1, !tbaa !95
  %14 = zext i8 %13 to i32
  %15 = ashr i32 %14, 3
  %16 = sext i32 %15 to i64
  store i64 %16, ptr %2, align 8
  store i32 1, ptr %5, align 4
  br label %41

17:                                               ; preds = %1
  %18 = load ptr, ptr %3, align 8, !tbaa !33
  %19 = getelementptr inbounds i8, ptr %18, i64 -3
  %20 = getelementptr inbounds nuw %struct.sdshdr8, ptr %19, i32 0, i32 0
  %21 = load i8, ptr %20, align 1, !tbaa !95
  %22 = zext i8 %21 to i64
  store i64 %22, ptr %2, align 8
  store i32 1, ptr %5, align 4
  br label %41

23:                                               ; preds = %1
  %24 = load ptr, ptr %3, align 8, !tbaa !33
  %25 = getelementptr inbounds i8, ptr %24, i64 -5
  %26 = getelementptr inbounds nuw %struct.sdshdr16, ptr %25, i32 0, i32 0
  %27 = load i16, ptr %26, align 1, !tbaa !96
  %28 = zext i16 %27 to i64
  store i64 %28, ptr %2, align 8
  store i32 1, ptr %5, align 4
  br label %41

29:                                               ; preds = %1
  %30 = load ptr, ptr %3, align 8, !tbaa !33
  %31 = getelementptr inbounds i8, ptr %30, i64 -9
  %32 = getelementptr inbounds nuw %struct.sdshdr32, ptr %31, i32 0, i32 0
  %33 = load i32, ptr %32, align 1, !tbaa !13
  %34 = zext i32 %33 to i64
  store i64 %34, ptr %2, align 8
  store i32 1, ptr %5, align 4
  br label %41

35:                                               ; preds = %1
  %36 = load ptr, ptr %3, align 8, !tbaa !33
  %37 = getelementptr inbounds i8, ptr %36, i64 -17
  %38 = getelementptr inbounds nuw %struct.sdshdr64, ptr %37, i32 0, i32 0
  %39 = load i64, ptr %38, align 1, !tbaa !31
  store i64 %39, ptr %2, align 8
  store i32 1, ptr %5, align 4
  br label %41

40:                                               ; preds = %1
  store i64 0, ptr %2, align 8
  store i32 1, ptr %5, align 4
  br label %41

41:                                               ; preds = %40, %35, %29, %23, %17, %12
  call void @llvm.lifetime.end.p0(i64 1, ptr %4) #12
  %42 = load i64, ptr %2, align 8
  ret i64 %42
}

; Function Attrs: nounwind uwtable
define internal void @listpackExUpdateExpiry(ptr noundef %0, ptr noundef %1, ptr noundef %2, ptr noundef %3, i64 noundef %4) #1 {
  %6 = alloca ptr, align 8
  %7 = alloca ptr, align 8
  %8 = alloca ptr, align 8
  %9 = alloca ptr, align 8
  %10 = alloca i64, align 8
  %11 = alloca i32, align 4
  %12 = alloca i64, align 8
  %13 = alloca [512 x i8], align 16
  %14 = alloca ptr, align 8
  %15 = alloca ptr, align 8
  %16 = alloca ptr, align 8
  %17 = alloca [3 x %struct.listpackEntry], align 16
  store ptr %0, ptr %6, align 8, !tbaa !15
  store ptr %1, ptr %7, align 8, !tbaa !33
  store ptr %2, ptr %8, align 8, !tbaa !33
  store ptr %3, ptr %9, align 8, !tbaa !33
  store i64 %4, ptr %10, align 8, !tbaa !31
  call void @llvm.lifetime.start.p0(i64 4, ptr %11) #12
  store i32 0, ptr %11, align 4, !tbaa !13
  call void @llvm.lifetime.start.p0(i64 8, ptr %12) #12
  store i64 0, ptr %12, align 8, !tbaa !37
  call void @llvm.lifetime.start.p0(i64 512, ptr %13) #12
  call void @llvm.memset.p0.i64(ptr align 16 %13, i8 0, i64 512, i1 false)
  call void @llvm.lifetime.start.p0(i64 8, ptr %14) #12
  call void @llvm.lifetime.start.p0(i64 8, ptr %15) #12
  store ptr null, ptr %15, align 8, !tbaa !33
  call void @llvm.lifetime.start.p0(i64 8, ptr %16) #12
  %18 = load ptr, ptr %6, align 8, !tbaa !15
  %19 = getelementptr inbounds nuw %struct.redisObject, ptr %18, i32 0, i32 2
  %20 = load ptr, ptr %19, align 8, !tbaa !17
  store ptr %20, ptr %16, align 8, !tbaa !19
  %21 = load ptr, ptr %9, align 8, !tbaa !33
  %22 = call ptr @lpGetValue(ptr noundef %21, ptr noundef %11, ptr noundef %12)
  store ptr %22, ptr %14, align 8, !tbaa !33
  %23 = load ptr, ptr %14, align 8, !tbaa !33
  %24 = icmp ne ptr %23, null
  br i1 %24, label %25, label %40

25:                                               ; preds = %5
  %26 = load i32, ptr %11, align 4, !tbaa !13
  %27 = zext i32 %26 to i64
  %28 = icmp ugt i64 %27, 512
  br i1 %28, label %29, label %34

29:                                               ; preds = %25
  %30 = load ptr, ptr %14, align 8, !tbaa !33
  %31 = load i32, ptr %11, align 4, !tbaa !13
  %32 = zext i32 %31 to i64
  %33 = call ptr @sdsnewlen(ptr noundef %30, i64 noundef %32)
  store ptr %33, ptr %15, align 8, !tbaa !33
  br label %39

34:                                               ; preds = %25
  %35 = getelementptr inbounds [512 x i8], ptr %13, i64 0, i64 0
  %36 = load ptr, ptr %14, align 8, !tbaa !33
  %37 = load i32, ptr %11, align 4, !tbaa !13
  %38 = zext i32 %37 to i64
  call void @llvm.memcpy.p0.p0.i64(ptr align 16 %35, ptr align 1 %36, i64 %38, i1 false)
  br label %39

39:                                               ; preds = %34, %29
  br label %40

40:                                               ; preds = %39, %5
  %41 = load ptr, ptr %16, align 8, !tbaa !19
  %42 = getelementptr inbounds nuw %struct.listpackEx, ptr %41, i32 0, i32 2
  %43 = load ptr, ptr %42, align 8, !tbaa !21
  %44 = call ptr @lpDeleteRangeWithEntry(ptr noundef %43, ptr noundef %8, i64 noundef 3)
  %45 = load ptr, ptr %16, align 8, !tbaa !19
  %46 = getelementptr inbounds nuw %struct.listpackEx, ptr %45, i32 0, i32 2
  store ptr %44, ptr %46, align 8, !tbaa !21
  call void @llvm.lifetime.start.p0(i64 72, ptr %17) #12
  call void @llvm.memset.p0.i64(ptr align 16 %17, i8 0, i64 72, i1 false)
  %47 = load ptr, ptr %7, align 8, !tbaa !33
  %48 = getelementptr inbounds [3 x %struct.listpackEntry], ptr %17, i64 0, i64 0
  %49 = getelementptr inbounds nuw %struct.listpackEntry, ptr %48, i32 0, i32 0
  store ptr %47, ptr %49, align 16, !tbaa !76
  %50 = load ptr, ptr %7, align 8, !tbaa !33
  %51 = call i64 @sdslen(ptr noundef %50)
  %52 = trunc i64 %51 to i32
  %53 = getelementptr inbounds [3 x %struct.listpackEntry], ptr %17, i64 0, i64 0
  %54 = getelementptr inbounds nuw %struct.listpackEntry, ptr %53, i32 0, i32 1
  store i32 %52, ptr %54, align 8, !tbaa !78
  %55 = load ptr, ptr %14, align 8, !tbaa !33
  %56 = icmp ne ptr %55, null
  br i1 %56, label %57, label %71

57:                                               ; preds = %40
  %58 = load ptr, ptr %15, align 8, !tbaa !33
  %59 = icmp ne ptr %58, null
  br i1 %59, label %60, label %62

60:                                               ; preds = %57
  %61 = load ptr, ptr %15, align 8, !tbaa !33
  br label %64

62:                                               ; preds = %57
  %63 = getelementptr inbounds [512 x i8], ptr %13, i64 0, i64 0
  br label %64

64:                                               ; preds = %62, %60
  %65 = phi ptr [ %61, %60 ], [ %63, %62 ]
  %66 = getelementptr inbounds [3 x %struct.listpackEntry], ptr %17, i64 0, i64 1
  %67 = getelementptr inbounds nuw %struct.listpackEntry, ptr %66, i32 0, i32 0
  store ptr %65, ptr %67, align 8, !tbaa !76
  %68 = load i32, ptr %11, align 4, !tbaa !13
  %69 = getelementptr inbounds [3 x %struct.listpackEntry], ptr %17, i64 0, i64 1
  %70 = getelementptr inbounds nuw %struct.listpackEntry, ptr %69, i32 0, i32 1
  store i32 %68, ptr %70, align 8, !tbaa !78
  br label %75

71:                                               ; preds = %40
  %72 = load i64, ptr %12, align 8, !tbaa !37
  %73 = getelementptr inbounds [3 x %struct.listpackEntry], ptr %17, i64 0, i64 1
  %74 = getelementptr inbounds nuw %struct.listpackEntry, ptr %73, i32 0, i32 2
  store i64 %72, ptr %74, align 8, !tbaa !79
  br label %75

75:                                               ; preds = %71, %64
  %76 = load i64, ptr %10, align 8, !tbaa !31
  %77 = getelementptr inbounds [3 x %struct.listpackEntry], ptr %17, i64 0, i64 2
  %78 = getelementptr inbounds nuw %struct.listpackEntry, ptr %77, i32 0, i32 2
  store i64 %76, ptr %78, align 16, !tbaa !79
  %79 = load ptr, ptr %6, align 8, !tbaa !15
  %80 = getelementptr inbounds [3 x %struct.listpackEntry], ptr %17, i64 0, i64 0
  call void @listpackExAddInternal(ptr noundef %79, ptr noundef %80)
  %81 = load ptr, ptr %15, align 8, !tbaa !33
  call void @sdsfree(ptr noundef %81)
  call void @llvm.lifetime.end.p0(i64 72, ptr %17) #12
  call void @llvm.lifetime.end.p0(i64 8, ptr %16) #12
  call void @llvm.lifetime.end.p0(i64 8, ptr %15) #12
  call void @llvm.lifetime.end.p0(i64 8, ptr %14) #12
  call void @llvm.lifetime.end.p0(i64 512, ptr %13) #12
  call void @llvm.lifetime.end.p0(i64 8, ptr %12) #12
  call void @llvm.lifetime.end.p0(i64 4, ptr %11) #12
  ret void
}