; Function Attrs: nounwind uwtable
define internal fastcc void @listpackExUpdateExpiry(ptr noundef readonly captures(none) %0, ptr noundef %1, ptr noundef %2, ptr noundef %3, i64 noundef range(i64 281474976710657, 281474976710656) %4) unnamed_addr #1 {
  %6 = alloca %struct.lpFingArgs, align 8
  %7 = alloca ptr, align 8
  %8 = alloca i32, align 4
  %9 = alloca i64, align 8
  %10 = alloca [512 x i8], align 16
  %11 = alloca [3 x %struct.listpackEntry], align 16
  store ptr %2, ptr %7, align 8, !tbaa !85
  call void @llvm.lifetime.start.p0(i64 4, ptr nonnull %8) #16
  store i32 0, ptr %8, align 4, !tbaa !65
  call void @llvm.lifetime.start.p0(i64 8, ptr nonnull %9) #16
  store i64 0, ptr %9, align 8, !tbaa !24
  call void @llvm.lifetime.start.p0(i64 512, ptr nonnull %10) #16
  call void @llvm.memset.p0.i64(ptr noundef nonnull align 16 dereferenceable(512) %10, i8 0, i64 512, i1 false)
  %12 = getelementptr inbounds nuw i8, ptr %0, i64 8
  %13 = load ptr, ptr %12, align 8, !tbaa !10
  %14 = call ptr @lpGetValue(ptr noundef %3, ptr noundef nonnull %8, ptr noundef nonnull %9) #16
  %.not = icmp eq ptr %14, null
  br i1 %.not, label %22, label %15

15:                                               ; preds = %5
  %16 = load i32, ptr %8, align 4, !tbaa !65
  %17 = zext i32 %16 to i64
  %18 = icmp ugt i32 %16, 512
  br i1 %18, label %19, label %21

19:                                               ; preds = %15
  %20 = call ptr @sdsnewlen(ptr noundef nonnull %14, i64 noundef %17) #16
  br label %22

21:                                               ; preds = %15
  call void @llvm.memcpy.p0.p0.i64(ptr nonnull align 16 %10, ptr nonnull align 1 %14, i64 %17, i1 false)
  br label %22

22:                                               ; preds = %19, %21, %5
  %.0 = phi ptr [ %20, %19 ], [ null, %21 ], [ null, %5 ]
  %23 = getelementptr inbounds nuw i8, ptr %13, i64 24
  %24 = load ptr, ptr %23, align 8, !tbaa !15
  %25 = call ptr @lpDeleteRangeWithEntry(ptr noundef %24, ptr noundef nonnull %7, i64 noundef 3) #16
  store ptr %25, ptr %23, align 8, !tbaa !15
  call void @llvm.lifetime.start.p0(i64 72, ptr nonnull %11) #16
  call void @llvm.memset.p0.i64(ptr noundef nonnull align 16 dereferenceable(72) %11, i8 0, i64 64, i1 false)
  store ptr %1, ptr %11, align 16, !tbaa !71
  %26 = getelementptr inbounds i8, ptr %1, i64 -1
  %27 = load i8, ptr %26, align 1, !tbaa !5
  %28 = zext i8 %27 to i32
  %29 = and i32 %28, 7
  switch i32 %29, label %sdslen.exit [
    i32 0, label %30
    i32 1, label %33
    i32 2, label %37
    i32 3, label %41
    i32 4, label %45
  ]

30:                                               ; preds = %22
  %31 = lshr i32 %28, 3
  %32 = zext nneg i32 %31 to i64
  br label %sdslen.exit

33:                                               ; preds = %22
  %34 = getelementptr inbounds i8, ptr %1, i64 -3
  %35 = load i8, ptr %34, align 1, !tbaa !5
  %36 = zext i8 %35 to i64
  br label %sdslen.exit

37:                                               ; preds = %22
  %38 = getelementptr inbounds i8, ptr %1, i64 -5
  %39 = load i16, ptr %38, align 1, !tbaa !8
  %40 = zext i16 %39 to i64
  br label %sdslen.exit

41:                                               ; preds = %22
  %42 = getelementptr inbounds i8, ptr %1, i64 -9
  %43 = load i32, ptr %42, align 1, !tbaa !65
  %44 = zext i32 %43 to i64
  br label %sdslen.exit

45:                                               ; preds = %22
  %46 = getelementptr inbounds i8, ptr %1, i64 -17
  %47 = load i64, ptr %46, align 1, !tbaa !28
  br label %sdslen.exit

sdslen.exit:                                      ; preds = %22, %30, %33, %37, %41, %45
  %.0.i = phi i64 [ %47, %45 ], [ %44, %41 ], [ %40, %37 ], [ %36, %33 ], [ %32, %30 ], [ 0, %22 ]
  %48 = trunc i64 %.0.i to i32
  %49 = getelementptr inbounds nuw i8, ptr %11, i64 8
  store i32 %48, ptr %49, align 8, !tbaa !73
  br i1 %.not, label %55, label %50

50:                                               ; preds = %sdslen.exit
  %.not16 = icmp eq ptr %.0, null
  %51 = select i1 %.not16, ptr %10, ptr %.0
  %52 = getelementptr inbounds nuw i8, ptr %11, i64 24
  store ptr %51, ptr %52, align 8, !tbaa !71
  %53 = load i32, ptr %8, align 4, !tbaa !65
  %54 = getelementptr inbounds nuw i8, ptr %11, i64 32
  store i32 %53, ptr %54, align 16, !tbaa !73
  br label %58

55:                                               ; preds = %sdslen.exit
  %56 = load i64, ptr %9, align 8, !tbaa !24
  %57 = getelementptr inbounds nuw i8, ptr %11, i64 40
  store i64 %56, ptr %57, align 8, !tbaa !74
  br label %58

58:                                               ; preds = %55, %50
  %59 = getelementptr inbounds nuw i8, ptr %11, i64 64
  store i64 %4, ptr %59, align 16, !tbaa !74
  %.val = load ptr, ptr %12, align 8, !tbaa !10
  %60 = icmp eq i64 %4, 0
  br i1 %60, label %61, label %65

61:                                               ; preds = %58
  %62 = getelementptr inbounds nuw i8, ptr %.val, i64 24
  %63 = load ptr, ptr %62, align 8, !tbaa !15
  %64 = call ptr @lpBatchAppend(ptr noundef %63, ptr noundef nonnull %11, i64 noundef 3) #16
  store ptr %64, ptr %62, align 8, !tbaa !15
  br label %listpackExAddInternal.exit

65:                                               ; preds = %58
  call void @llvm.lifetime.start.p0(i64 40, ptr nonnull %6) #16
  store i64 -1, ptr %6, align 8, !tbaa !75
  %66 = getelementptr inbounds nuw i8, ptr %6, i64 8
  store i64 %4, ptr %66, align 8, !tbaa !77
  %67 = getelementptr inbounds nuw i8, ptr %6, i64 16
  %68 = getelementptr inbounds nuw i8, ptr %.val, i64 24
  call void @llvm.memset.p0.i64(ptr noundef nonnull align 8 dereferenceable(24) %67, i8 0, i64 24, i1 false)
  %69 = load ptr, ptr %68, align 8, !tbaa !15
  %70 = call ptr @lpFindCb(ptr noundef %69, ptr noundef null, ptr noundef nonnull %6, ptr noundef nonnull @cbFindInListpack, i32 noundef 0) #16
  %71 = load ptr, ptr %67, align 8, !tbaa !78
  %.not.i = icmp eq ptr %71, null
  %72 = load ptr, ptr %68, align 8, !tbaa !15
  br i1 %.not.i, label %75, label %73

73:                                               ; preds = %65
  %74 = call ptr @lpBatchInsert(ptr noundef %72, ptr noundef nonnull %71, i32 noundef 0, ptr noundef nonnull %11, i32 noundef 3, ptr noundef null) #16
  br label %77

75:                                               ; preds = %65
  %76 = call ptr @lpBatchAppend(ptr noundef %72, ptr noundef nonnull %11, i64 noundef 3) #16
  br label %77

77:                                               ; preds = %75, %73
  %storemerge.i = phi ptr [ %76, %75 ], [ %74, %73 ]
  store ptr %storemerge.i, ptr %68, align 8, !tbaa !15
  call void @llvm.lifetime.end.p0(i64 40, ptr nonnull %6) #16
  br label %listpackExAddInternal.exit

listpackExAddInternal.exit:                       ; preds = %61, %77
  call void @sdsfree(ptr noundef %.0) #16
  call void @llvm.lifetime.end.p0(i64 72, ptr nonnull %11) #16
  call void @llvm.lifetime.end.p0(i64 512, ptr nonnull %10) #16
  call void @llvm.lifetime.end.p0(i64 8, ptr nonnull %9) #16
  call void @llvm.lifetime.end.p0(i64 4, ptr nonnull %8) #16
  ret void
}